; Function Attrs: mustprogress uwtable
define internal noundef nonnull ptr @_ZN7testing8internal24ParameterizedTestFactoryIN12_GLOBAL__N_124IdenticalTest_Block_TestEE10CreateTestEv(ptr noundef nonnull align 8 dereferenceable(88) %0) unnamed_addr #6 align 2 personality ptr @__gxx_personality_v0 {
  %2 = getelementptr inbounds nuw i8, ptr %0, i64 8
  store ptr %2, ptr @_ZN7testing18WithParamInterfaceIN12_GLOBAL__N_111PatternInfoEE10parameter_E, align 8
  %3 = tail call noalias noundef nonnull dereferenceable(24) ptr @_Znwm(i64 noundef 24) #31
  invoke void @_ZN7testing4TestC2Ev(ptr noundef nonnull align 8 dereferenceable(24) %3)
          to label %4 unwind label %6

4:                                                ; preds = %1
  %5 = getelementptr inbounds nuw i8, ptr %3, i64 16
  store ptr getelementptr inbounds nuw inrange(-16, 48) (i8, ptr @_ZTVN12_GLOBAL__N_124IdenticalTest_Block_TestE, i64 16), ptr %3, align 8
  store ptr getelementptr inbounds nuw inrange(-16, 16) (i8, ptr @_ZTVN12_GLOBAL__N_124IdenticalTest_Block_TestE, i64 80), ptr %5, align 8
  ret ptr %3

6:                                                ; preds = %1
  %7 = landingpad { ptr, i32 }
          cleanup
  tail call void @_ZdlPv(ptr noundef nonnull %3) #27
  resume { ptr, i32 } %7
}